
t7.elf:     file format elf32-littleriscv


Disassembly of section .text:

00000000 <_start>:
   0:	00014117          	auipc	sp,0x14
   4:	00010113          	mv	sp,sp
   8:	2abd                	jal	186 <main>

0000000a <loop>:
   a:	48a9                	li	a7,10
   c:	00000073          	ecall
  10:	bfed                	j	a <loop>

00000012 <printInt>:
  12:	1101                	add	sp,sp,-32 # 13fe0 <_end+0x3fdc>
  14:	ce22                	sw	s0,28(sp)
  16:	1000                	add	s0,sp,32
  18:	fea42623          	sw	a0,-20(s0)
  1c:	4885                	li	a7,1
  1e:	853e                	mv	a0,a5
  20:	fef42623          	sw	a5,-20(s0)
  24:	00000073          	ecall
  28:	0001                	nop
  2a:	4472                	lw	s0,28(sp)
  2c:	6105                	add	sp,sp,32
  2e:	8082                	ret

00000030 <printString>:
  30:	1101                	add	sp,sp,-32
  32:	ce22                	sw	s0,28(sp)
  34:	1000                	add	s0,sp,32
  36:	fea42623          	sw	a0,-20(s0)
  3a:	4891                	li	a7,4
  3c:	853e                	mv	a0,a5
  3e:	fef42623          	sw	a5,-20(s0)
  42:	00000073          	ecall
  46:	0001                	nop
  48:	4472                	lw	s0,28(sp)
  4a:	6105                	add	sp,sp,32
  4c:	8082                	ret

0000004e <djb33_hash>:
  4e:	7179                	add	sp,sp,-48
  50:	d622                	sw	s0,44(sp)
  52:	1800                	add	s0,sp,48
  54:	fca42e23          	sw	a0,-36(s0)
  58:	fcb42c23          	sw	a1,-40(s0)
  5c:	6785                	lui	a5,0x1
  5e:	50578793          	add	a5,a5,1285 # 1505 <main+0x137f>
  62:	fef42623          	sw	a5,-20(s0)
  66:	a03d                	j	94 <djb33_hash+0x46>
  68:	fec42783          	lw	a5,-20(s0)
  6c:	0796                	sll	a5,a5,0x5
  6e:	fec42703          	lw	a4,-20(s0)
  72:	97ba                	add	a5,a5,a4
  74:	fef42623          	sw	a5,-20(s0)
  78:	fdc42783          	lw	a5,-36(s0)
  7c:	00178713          	add	a4,a5,1
  80:	fce42e23          	sw	a4,-36(s0)
  84:	0007c783          	lbu	a5,0(a5)
  88:	873e                	mv	a4,a5
  8a:	fec42783          	lw	a5,-20(s0)
  8e:	8fb9                	xor	a5,a5,a4
  90:	fef42623          	sw	a5,-20(s0)
  94:	fd842783          	lw	a5,-40(s0)
  98:	fff78713          	add	a4,a5,-1
  9c:	fce42c23          	sw	a4,-40(s0)
  a0:	f7e1                	bnez	a5,68 <djb33_hash+0x1a>
  a2:	fec42783          	lw	a5,-20(s0)
  a6:	853e                	mv	a0,a5
  a8:	5432                	lw	s0,44(sp)
  aa:	6145                	add	sp,sp,48
  ac:	8082                	ret

000000ae <oat_hash>:
  ae:	7179                	add	sp,sp,-48
  b0:	d622                	sw	s0,44(sp)
  b2:	1800                	add	s0,sp,48
  b4:	fca42e23          	sw	a0,-36(s0)
  b8:	fcb42c23          	sw	a1,-40(s0)
  bc:	fdc42783          	lw	a5,-36(s0)
  c0:	fef42623          	sw	a5,-20(s0)
  c4:	fe042423          	sw	zero,-24(s0)
  c8:	a83d                	j	106 <oat_hash+0x58>
  ca:	fec42783          	lw	a5,-20(s0)
  ce:	00178713          	add	a4,a5,1
  d2:	fee42623          	sw	a4,-20(s0)
  d6:	0007c783          	lbu	a5,0(a5)
  da:	873e                	mv	a4,a5
  dc:	fe842783          	lw	a5,-24(s0)
  e0:	97ba                	add	a5,a5,a4
  e2:	fef42423          	sw	a5,-24(s0)
  e6:	fe842783          	lw	a5,-24(s0)
  ea:	07aa                	sll	a5,a5,0xa
  ec:	fe842703          	lw	a4,-24(s0)
  f0:	97ba                	add	a5,a5,a4
  f2:	fef42423          	sw	a5,-24(s0)
  f6:	fe842783          	lw	a5,-24(s0)
  fa:	8399                	srl	a5,a5,0x6
  fc:	fe842703          	lw	a4,-24(s0)
 100:	8fb9                	xor	a5,a5,a4
 102:	fef42423          	sw	a5,-24(s0)
 106:	fd842783          	lw	a5,-40(s0)
 10a:	fff78713          	add	a4,a5,-1
 10e:	fce42c23          	sw	a4,-40(s0)
 112:	ffc5                	bnez	a5,ca <oat_hash+0x1c>
 114:	fe842783          	lw	a5,-24(s0)
 118:	078e                	sll	a5,a5,0x3
 11a:	fe842703          	lw	a4,-24(s0)
 11e:	97ba                	add	a5,a5,a4
 120:	fef42423          	sw	a5,-24(s0)
 124:	fe842783          	lw	a5,-24(s0)
 128:	83ad                	srl	a5,a5,0xb
 12a:	fe842703          	lw	a4,-24(s0)
 12e:	8fb9                	xor	a5,a5,a4
 130:	fef42423          	sw	a5,-24(s0)
 134:	fe842783          	lw	a5,-24(s0)
 138:	07be                	sll	a5,a5,0xf
 13a:	fe842703          	lw	a4,-24(s0)
 13e:	97ba                	add	a5,a5,a4
 140:	fef42423          	sw	a5,-24(s0)
 144:	fe842783          	lw	a5,-24(s0)
 148:	853e                	mv	a0,a5
 14a:	5432                	lw	s0,44(sp)
 14c:	6145                	add	sp,sp,48
 14e:	8082                	ret

00000150 <strlen>:
 150:	7179                	add	sp,sp,-48
 152:	d622                	sw	s0,44(sp)
 154:	1800                	add	s0,sp,48
 156:	fca42e23          	sw	a0,-36(s0)
 15a:	fe042623          	sw	zero,-20(s0)
 15e:	a031                	j	16a <strlen+0x1a>
 160:	fec42783          	lw	a5,-20(s0)
 164:	0785                	add	a5,a5,1
 166:	fef42623          	sw	a5,-20(s0)
 16a:	fec42783          	lw	a5,-20(s0)
 16e:	fdc42703          	lw	a4,-36(s0)
 172:	97ba                	add	a5,a5,a4
 174:	0007c783          	lbu	a5,0(a5)
 178:	f7e5                	bnez	a5,160 <strlen+0x10>
 17a:	fec42783          	lw	a5,-20(s0)
 17e:	853e                	mv	a0,a5
 180:	5432                	lw	s0,44(sp)
 182:	6145                	add	sp,sp,48
 184:	8082                	ret

00000186 <main>:
 186:	1101                	add	sp,sp,-32
 188:	ce06                	sw	ra,28(sp)
 18a:	cc22                	sw	s0,24(sp)
 18c:	ca26                	sw	s1,20(sp)
 18e:	1000                	add	s0,sp,32
 190:	67c1                	lui	a5,0x10
 192:	0007a483          	lw	s1,0(a5) # 10000 <str>
 196:	67c1                	lui	a5,0x10
 198:	0007a783          	lw	a5,0(a5) # 10000 <str>
 19c:	853e                	mv	a0,a5
 19e:	3f4d                	jal	150 <strlen>
 1a0:	87aa                	mv	a5,a0
 1a2:	85be                	mv	a1,a5
 1a4:	8526                	mv	a0,s1
 1a6:	3565                	jal	4e <djb33_hash>
 1a8:	fea42623          	sw	a0,-20(s0)
 1ac:	fec42783          	lw	a5,-20(s0)
 1b0:	853e                	mv	a0,a5
 1b2:	3585                	jal	12 <printInt>
 1b4:	67c1                	lui	a5,0x10
 1b6:	0007a483          	lw	s1,0(a5) # 10000 <str>
 1ba:	67c1                	lui	a5,0x10
 1bc:	0007a783          	lw	a5,0(a5) # 10000 <str>
 1c0:	853e                	mv	a0,a5
 1c2:	3779                	jal	150 <strlen>
 1c4:	87aa                	mv	a5,a0
 1c6:	85be                	mv	a1,a5
 1c8:	8526                	mv	a0,s1
 1ca:	35d5                	jal	ae <oat_hash>
 1cc:	fea42423          	sw	a0,-24(s0)
 1d0:	fe842783          	lw	a5,-24(s0)
 1d4:	853e                	mv	a0,a5
 1d6:	3d35                	jal	12 <printInt>
 1d8:	4785                	li	a5,1
 1da:	853e                	mv	a0,a5
 1dc:	40f2                	lw	ra,28(sp)
 1de:	4462                	lw	s0,24(sp)
 1e0:	44d2                	lw	s1,20(sp)
 1e2:	6105                	add	sp,sp,32
 1e4:	8082                	ret
